target datalayout = "e-m:e-p270:32:32-p271:32:32-p272:64:64-i64:64-i128:128-f80:128-n8:16:32:64-S128"
target triple = "x86_64-pc-linux-gnu"

%struct.test_fixture = type { ptr, i32, ptr, ptr, ptr, ptr, i32 }

@libctx = internal global ptr null, align 8
@.str.14 = private unnamed_addr constant [31 x i8] c"../openssl/test/cmp_vfy_test.c\00", align 1
@ip_waiting_f = internal global ptr null, align 8
@.str.75 = private unnamed_addr constant [18 x i8] c"fixture->expected\00", align 1
@.str.78 = private unnamed_addr constant [67 x i8] c"ossl_cmp_msg_check_update(fixture->cmp_ctx, fixture->msg, NULL, 0)\00", align 1
@.str.79 = private unnamed_addr constant [10 x i8] c"validated\00", align 1
@.str.80 = private unnamed_addr constant [14 x i8] c"fixture->cert\00", align 1
@sec_1 = internal constant [19 x i8] c"9pp8-b35i-Xd3Q-udNR", align 16
@__func__.test_validate_msg_mac_alg_protection = private unnamed_addr constant [37 x i8] c"test_validate_msg_mac_alg_protection\00", align 1
@.str.87 = private unnamed_addr constant [141 x i8] c"miss ? OSSL_CMP_CTX_set0_trusted(fixture->cmp_ctx, NULL) : OSSL_CMP_CTX_set1_secretValue(fixture->cmp_ctx, sec_1, wrong ? 4 : sizeof(sec_1))\00", align 1
@.str.88 = private unnamed_addr constant [49 x i8] c"fixture->msg = load_pkimsg(ip_waiting_f, libctx)\00", align 1

; Function Attrs: nounwind uwtable
define internal i32 @execute_validate_msg_test(ptr noundef %0) #0 {
  %2 = alloca ptr, align 8
  %3 = alloca i32, align 4
  %4 = alloca ptr, align 8
  store ptr %0, ptr %2, align 8, !tbaa !24
  call void @llvm.lifetime.start.p0(i64 4, ptr %3) #7
  %5 = load ptr, ptr %2, align 8, !tbaa !24
  %6 = getelementptr inbounds nuw %struct.test_fixture, ptr %5, i32 0, i32 1
  %7 = load i32, ptr %6, align 8, !tbaa !27
  %8 = load ptr, ptr %2, align 8, !tbaa !24
  %9 = getelementptr inbounds nuw %struct.test_fixture, ptr %8, i32 0, i32 2
  %10 = load ptr, ptr %9, align 8, !tbaa !32
  %11 = load ptr, ptr %2, align 8, !tbaa !24
  %12 = getelementptr inbounds nuw %struct.test_fixture, ptr %11, i32 0, i32 3
  %13 = load ptr, ptr %12, align 8, !tbaa !31
  %14 = call i32 @ossl_cmp_msg_check_update(ptr noundef %10, ptr noundef %13, ptr noundef null, i32 noundef 0)
  %15 = call i32 @test_int_eq(ptr noundef @.str.14, i32 noundef 139, ptr noundef @.str.75, ptr noundef @.str.78, i32 noundef %7, i32 noundef %14)
  store i32 %15, ptr %3, align 4, !tbaa !26
  call void @llvm.lifetime.start.p0(i64 8, ptr %4) #7
  %16 = load ptr, ptr %2, align 8, !tbaa !24
  %17 = getelementptr inbounds nuw %struct.test_fixture, ptr %16, i32 0, i32 2
  %18 = load ptr, ptr %17, align 8, !tbaa !32
  %19 = call ptr @OSSL_CMP_CTX_get0_validatedSrvCert(ptr noundef %18)
  store ptr %19, ptr %4, align 8, !tbaa !4
  %20 = load i32, ptr %3, align 4, !tbaa !26
  %21 = icmp ne i32 %20, 0
  br i1 %21, label %22, label %36

22:                                               ; preds = %1
  %23 = load ptr, ptr %2, align 8, !tbaa !24
  %24 = getelementptr inbounds nuw %struct.test_fixture, ptr %23, i32 0, i32 1
  %25 = load i32, ptr %24, align 8, !tbaa !27
  %26 = icmp ne i32 %25, 0
  br i1 %26, label %27, label %34

27:                                               ; preds = %22
  %28 = load ptr, ptr %4, align 8, !tbaa !4
  %29 = load ptr, ptr %2, align 8, !tbaa !24
  %30 = getelementptr inbounds nuw %struct.test_fixture, ptr %29, i32 0, i32 4
  %31 = load ptr, ptr %30, align 8, !tbaa !30
  %32 = call i32 @test_ptr_eq(ptr noundef @.str.14, i32 noundef 142, ptr noundef @.str.79, ptr noundef @.str.80, ptr noundef %28, ptr noundef %31)
  %33 = icmp ne i32 %32, 0
  br label %34

34:                                               ; preds = %27, %22
  %35 = phi i1 [ true, %22 ], [ %33, %27 ]
  br label %36

36:                                               ; preds = %34, %1
  %37 = phi i1 [ false, %1 ], [ %35, %34 ]
  %38 = zext i1 %37 to i32
  call void @llvm.lifetime.end.p0(i64 8, ptr %4) #7
  call void @llvm.lifetime.end.p0(i64 4, ptr %3) #7
  ret i32 %38
}

; Function Attrs: nounwind uwtable
define internal void @tear_down(ptr noundef %0) #0 {
  %2 = alloca ptr, align 8
  store ptr %0, ptr %2, align 8, !tbaa !24
  %3 = load ptr, ptr %2, align 8, !tbaa !24
  %4 = getelementptr inbounds nuw %struct.test_fixture, ptr %3, i32 0, i32 3
  %5 = load ptr, ptr %4, align 8, !tbaa !31
  call void @OSSL_CMP_MSG_free(ptr noundef %5)
  %6 = load ptr, ptr %2, align 8, !tbaa !24
  %7 = getelementptr inbounds nuw %struct.test_fixture, ptr %6, i32 0, i32 2
  %8 = load ptr, ptr %7, align 8, !tbaa !32
  call void @OSSL_CMP_CTX_free(ptr noundef %8)
  %9 = load ptr, ptr %2, align 8, !tbaa !24
  call void @CRYPTO_free(ptr noundef %9, ptr noundef @.str.14, i32 noundef 47)
  ret void
}

; Function Attrs: nounwind uwtable
define internal i32 @test_validate_msg_mac_alg_protection(i32 noundef %0, i32 noundef %1) #0 {
  %3 = alloca i32, align 4
  %4 = alloca i32, align 4
  %5 = alloca i32, align 4
  %6 = alloca ptr, align 8
  %7 = alloca i32, align 4
  %8 = alloca i32, align 4
  store i32 %0, ptr %4, align 4, !tbaa !26
  store i32 %1, ptr %5, align 4, !tbaa !26
  call void @llvm.lifetime.start.p0(i64 8, ptr %6) #7
  %9 = call ptr @set_up(ptr noundef @__func__.test_validate_msg_mac_alg_protection)
  store ptr %9, ptr %6, align 8, !tbaa !24
  call void @llvm.lifetime.start.p0(i64 4, ptr %7) #7
  store i32 0, ptr %7, align 4, !tbaa !26
  %10 = load ptr, ptr %6, align 8, !tbaa !24
  %11 = icmp eq ptr %10, null
  br i1 %11, label %12, label %13

12:                                               ; preds = %2
  store i32 0, ptr %3, align 4
  store i32 1, ptr %8, align 4
  br label %68

13:                                               ; preds = %2
  %14 = load ptr, ptr %6, align 8, !tbaa !24
  %15 = getelementptr inbounds nuw %struct.test_fixture, ptr %14, i32 0, i32 4
  store ptr null, ptr %15, align 8, !tbaa !30
  %16 = load i32, ptr %4, align 4, !tbaa !26
  %17 = icmp ne i32 %16, 0
  br i1 %17, label %22, label %18

18:                                               ; preds = %13
  %19 = load i32, ptr %5, align 4, !tbaa !26
  %20 = icmp ne i32 %19, 0
  %21 = xor i1 %20, true
  br label %22

22:                                               ; preds = %18, %13
  %23 = phi i1 [ false, %13 ], [ %21, %18 ]
  %24 = zext i1 %23 to i32
  %25 = load ptr, ptr %6, align 8, !tbaa !24
  %26 = getelementptr inbounds nuw %struct.test_fixture, ptr %25, i32 0, i32 1
  store i32 %24, ptr %26, align 8, !tbaa !27
  %27 = load i32, ptr %4, align 4, !tbaa !26
  %28 = icmp ne i32 %27, 0
  br i1 %28, label %29, label %34

29:                                               ; preds = %22
  %30 = load ptr, ptr %6, align 8, !tbaa !24
  %31 = getelementptr inbounds nuw %struct.test_fixture, ptr %30, i32 0, i32 2
  %32 = load ptr, ptr %31, align 8, !tbaa !32
  %33 = call i32 @OSSL_CMP_CTX_set0_trustedStore(ptr noundef %32, ptr noundef null)
  br label %43

34:                                               ; preds = %22
  %35 = load ptr, ptr %6, align 8, !tbaa !24
  %36 = getelementptr inbounds nuw %struct.test_fixture, ptr %35, i32 0, i32 2
  %37 = load ptr, ptr %36, align 8, !tbaa !32
  %38 = load i32, ptr %5, align 4, !tbaa !26
  %39 = icmp ne i32 %38, 0
  %40 = select i1 %39, i64 4, i64 19
  %41 = trunc i64 %40 to i32
  %42 = call i32 @OSSL_CMP_CTX_set1_secretValue(ptr noundef %37, ptr noundef @sec_1, i32 noundef %41)
  br label %43

43:                                               ; preds = %34, %29
  %44 = phi i32 [ %33, %29 ], [ %42, %34 ]
  %45 = icmp ne i32 %44, 0
  %46 = zext i1 %45 to i32
  %47 = call i32 @test_true(ptr noundef @.str.14, i32 noundef 164, ptr noundef @.str.87, i32 noundef %46)
  %48 = icmp ne i32 %47, 0
  br i1 %48, label %49, label %57

49:                                               ; preds = %43
  %50 = load ptr, ptr @ip_waiting_f, align 8, !tbaa !23
  %51 = load ptr, ptr @libctx, align 8, !tbaa !13
  %52 = call ptr @load_pkimsg(ptr noundef %50, ptr noundef %51)
  %53 = load ptr, ptr %6, align 8, !tbaa !24
  %54 = getelementptr inbounds nuw %struct.test_fixture, ptr %53, i32 0, i32 3
  store ptr %52, ptr %54, align 8, !tbaa !31
  %55 = call i32 @test_ptr(ptr noundef @.str.14, i32 noundef 165, ptr noundef @.str.88, ptr noundef %52)
  %56 = icmp ne i32 %55, 0
  br i1 %56, label %59, label %57

57:                                               ; preds = %49, %43
  %58 = load ptr, ptr %6, align 8, !tbaa !24
  call void @tear_down(ptr noundef %58)
  store ptr null, ptr %6, align 8, !tbaa !24
  br label %59

59:                                               ; preds = %57, %49
  %60 = load ptr, ptr %6, align 8, !tbaa !24
  %61 = icmp ne ptr %60, null
  br i1 %61, label %62, label %66

62:                                               ; preds = %59
  %63 = load ptr, ptr %6, align 8, !tbaa !24
  %64 = call i32 @execute_validate_msg_test(ptr noundef %63)
  store i32 %64, ptr %7, align 4, !tbaa !26
  %65 = load ptr, ptr %6, align 8, !tbaa !24
  call void @tear_down(ptr noundef %65)
  br label %66

66:                                               ; preds = %62, %59
  %67 = load i32, ptr %7, align 4, !tbaa !26
  store i32 %67, ptr %3, align 4
  store i32 1, ptr %8, align 4
  br label %68

68:                                               ; preds = %66, %12
  call void @llvm.lifetime.end.p0(i64 4, ptr %7) #7
  call void @llvm.lifetime.end.p0(i64 8, ptr %6) #7
  %69 = load i32, ptr %3, align 4
  ret i32 %69
}