; Function Attrs: nounwind uwtable
define internal fastcc range(i32 0, 2) i32 @test_validate_msg_mac_alg_protection(i32 noundef range(i32 0, 2) %0, i32 noundef range(i32 0, 2) %1) unnamed_addr #0 {
  %3 = tail call fastcc ptr @set_up(ptr noundef nonnull @__func__.test_validate_msg_mac_alg_protection)
  %4 = icmp eq ptr %3, null
  br i1 %4, label %51, label %5

5:                                                ; preds = %2
  %6 = getelementptr inbounds nuw i8, ptr %3, i64 32
  store ptr null, ptr %6, align 8, !tbaa !29
  %.not = icmp eq i32 %0, 0
  %7 = or i32 %1, %0
  %8 = xor i32 %7, 1
  %9 = getelementptr inbounds nuw i8, ptr %3, i64 8
  store i32 %8, ptr %9, align 8, !tbaa !24
  br i1 %.not, label %14, label %10

10:                                               ; preds = %5
  %11 = getelementptr inbounds nuw i8, ptr %3, i64 16
  %12 = load ptr, ptr %11, align 8, !tbaa !28
  %13 = tail call i32 @OSSL_CMP_CTX_set0_trustedStore(ptr noundef %12, ptr noundef null) #7
  br label %19

14:                                               ; preds = %5
  %.not18 = icmp eq i32 %1, 0
  %15 = getelementptr inbounds nuw i8, ptr %3, i64 16
  %16 = load ptr, ptr %15, align 8, !tbaa !28
  %17 = select i1 %.not18, i32 19, i32 4
  %18 = tail call i32 @OSSL_CMP_CTX_set1_secretValue(ptr noundef %16, ptr noundef nonnull @sec_1, i32 noundef %17) #7
  br label %19

19:                                               ; preds = %14, %10
  %20 = phi i32 [ %13, %10 ], [ %18, %14 ]
  %21 = icmp ne i32 %20, 0
  %22 = zext i1 %21 to i32
  %23 = tail call i32 @test_true(ptr noundef nonnull @.str.14, i32 noundef 164, ptr noundef nonnull @.str.87, i32 noundef %22) #7
  %.not19 = icmp eq i32 %23, 0
  br i1 %.not19, label %.thread, label %24

24:                                               ; preds = %19
  %25 = load ptr, ptr @ip_waiting_f, align 8, !tbaa !23
  %26 = load ptr, ptr @libctx, align 8, !tbaa !13
  %27 = tail call ptr @load_pkimsg(ptr noundef %25, ptr noundef %26) #7
  %28 = getelementptr inbounds nuw i8, ptr %3, i64 24
  store ptr %27, ptr %28, align 8, !tbaa !27
  %29 = tail call i32 @test_ptr(ptr noundef nonnull @.str.14, i32 noundef 165, ptr noundef nonnull @.str.88, ptr noundef %27) #7
  %.not20 = icmp eq i32 %29, 0
  br i1 %.not20, label %.thread, label %33

.thread:                                          ; preds = %19, %24
  %30 = getelementptr inbounds nuw i8, ptr %3, i64 24
  %31 = load ptr, ptr %30, align 8, !tbaa !27
  tail call void @OSSL_CMP_MSG_free(ptr noundef %31) #7
  %32 = getelementptr inbounds nuw i8, ptr %3, i64 16
  br label %.sink.split

33:                                               ; preds = %24
  %34 = load i32, ptr %9, align 8, !tbaa !24
  %35 = getelementptr inbounds nuw i8, ptr %3, i64 16
  %36 = load ptr, ptr %35, align 8, !tbaa !28
  %37 = load ptr, ptr %28, align 8, !tbaa !27
  %38 = tail call i32 @ossl_cmp_msg_check_update(ptr noundef %36, ptr noundef %37, ptr noundef null, i32 noundef 0) #7
  %39 = tail call i32 @test_int_eq(ptr noundef nonnull @.str.14, i32 noundef 139, ptr noundef nonnull @.str.75, ptr noundef nonnull @.str.78, i32 noundef %34, i32 noundef %38) #7
  %40 = load ptr, ptr %35, align 8, !tbaa !28
  %41 = tail call ptr @OSSL_CMP_CTX_get0_validatedSrvCert(ptr noundef %40) #7
  %.not.i = icmp eq i32 %39, 0
  br i1 %.not.i, label %execute_validate_msg_test.exit, label %42

42:                                               ; preds = %33
  %43 = load i32, ptr %9, align 8, !tbaa !24
  %.not7.i = icmp eq i32 %43, 0
  br i1 %.not7.i, label %execute_validate_msg_test.exit, label %44

44:                                               ; preds = %42
  %45 = load ptr, ptr %6, align 8, !tbaa !29
  %46 = tail call i32 @test_ptr_eq(ptr noundef nonnull @.str.14, i32 noundef 142, ptr noundef nonnull @.str.79, ptr noundef nonnull @.str.80, ptr noundef %41, ptr noundef %45) #7
  %47 = icmp ne i32 %46, 0
  %48 = zext i1 %47 to i32
  br label %execute_validate_msg_test.exit

execute_validate_msg_test.exit:                   ; preds = %33, %42, %44
  %49 = phi i32 [ 0, %33 ], [ 1, %42 ], [ %48, %44 ]
  %50 = load ptr, ptr %28, align 8, !tbaa !27
  tail call void @OSSL_CMP_MSG_free(ptr noundef %50) #7
  br label %.sink.split

.sink.split:                                      ; preds = %execute_validate_msg_test.exit, %.thread
  %.sink.in = phi ptr [ %32, %.thread ], [ %35, %execute_validate_msg_test.exit ]
  %.016.ph = phi i32 [ 0, %.thread ], [ %49, %execute_validate_msg_test.exit ]
  %.sink = load ptr, ptr %.sink.in, align 8, !tbaa !28
  tail call void @OSSL_CMP_CTX_free(ptr noundef %.sink) #7
  tail call void @CRYPTO_free(ptr noundef nonnull %3, ptr noundef nonnull @.str.14, i32 noundef 47) #7
  br label %51

51:                                               ; preds = %.sink.split, %2
  %.016 = phi i32 [ 0, %2 ], [ %.016.ph, %.sink.split ]
  ret i32 %.016
}